Certificate:
    Data:
        Version: 1 (0x0)
        Serial Number: 10 (0xa)
        Signature Algorithm: md5WithRSAEncryption
        Issuer: C=CN, ST=Heilongjiang, L=Harbin, O=Test, OU=Test, CN=Test/emailAddress=2106934880@qq.com
        Validity
            Not Before: Dec 10 14:42:25 2021 GMT
            Not After : Dec 10 14:42:25 2022 GMT
        Subject: C=CN, ST=Helongjiang, O=HIT_Exp, OU=Exp_Test, CN=cdx_test7/emailAddress=2831923(D9asdad
        Subject Public Key Info:
            Public Key Algorithm: rsaEncryption
                Public-Key: (2048 bit)
                Modulus:
                    00:f1:71:85:f6:15:6c:ed:07:b5:83:be:b4:b3:c0:
                    55:1f:31:60:e7:fa:68:a0:6d:34:b2:7b:ff:e8:f9:
                    62:5a:04:27:12:f8:a4:5b:86:69:d8:c6:1d:17:b6:
                    fd:51:ec:a4:2a:d1:63:ad:02:77:94:c8:25:45:3b:
                    dc:a1:15:8c:4c:54:1c:8a:af:32:72:7e:86:e8:d4:
                    86:71:1b:ae:25:a9:ca:55:e5:8c:a6:b2:c6:b2:f5:
                    f1:87:a0:e1:4c:e5:9f:2a:e3:d7:4e:c3:e2:72:a6:
                    89:a9:f2:a1:d5:1c:c3:e0:db:cb:fb:a3:10:4e:19:
                    d7:35:57:36:33:d0:f0:f8:5e:98:e0:3f:35:96:f7:
                    53:e1:5c:3f:58:ae:5c:53:90:f9:96:2a:03:78:5d:
                    63:d9:6e:9e:6f:da:74:11:b6:2b:ca:cc:7d:67:35:
                    10:f7:f6:d8:ba:1d:1a:f9:75:42:73:c7:20:d8:f8:
                    d5:90:b2:97:77:69:cd:57:cb:8f:70:16:6f:6c:38:
                    c9:e0:c1:1f:47:d4:ed:65:94:16:41:4c:cb:c9:54:
                    67:e7:c1:2c:42:03:9b:3c:8f:bf:a1:fc:89:c1:cc:
                    89:b7:8f:dc:7f:6a:42:cc:9f:69:5e:86:fc:6c:c1:
                    72:0b:ce:2c:c1:f2:9d:54:ee:e1:cb:fa:b2:41:80:
                    90:3d
                Exponent: 65537 (0x10001)
    Signature Algorithm: md5WithRSAEncryption
    Signature Value:
        47:28:a0:24:78:46:24:6f:2e:14:a5:d2:aa:1a:35:cd:6f:2e:
        4d:44:15:87:0b:c8:bc:89:cd:14:bb:0d:6f:bd:53:f9:27:d4:
        f0:93:12:e4:ef:92:d5:20:41:aa:e1:b9:e3:cd:67:4f:c6:1a:
        23:15:40:af:78:69:c7:54:31:b1:04:7c:ba:2d:4b:8e:26:65:
        86:8b:13:2d:9d:dd:c8:14:97:7d:bf:63:81:d1:0f:94:85:34:
        6b:18:a8:46:e4:cd:f1:44:4e:0c:64:e2:b5:61:a9:18:70:81:
        48:9b:6d:be:83:68:7e:95:5f:e7:ae:72:84:8b:62:40:98:17:
        0b:d6
-----BEGIN CERTIFICATE-----
MIIC9DCCAl0CAQowDQYJKoZIhvcNAQEEBQAwgYQxCzAJBgNVBAYTAkNOMRUwEwYD
VQQIDAxIZWlsb25namlhbmcxDzANBgNVBAcMBkhhcmJpbjENMAsGA1UECgwEVGVz
dDENMAsGA1UECwwEVGVzdDENMAsGA1UEAwwEVGVzdDEgMB4GCSqGSIb3DQEJARYR
MjEwNjkzNDg4MEBxcS5jb20wHhcNMjExMjEwMTQ0MjI1WhcNMjIxMjEwMTQ0MjI1
WjB8MQswCQYDVQQGEwJDTjEUMBIGA1UECAwLSGVsb25namlhbmcxEDAOBgNVBAoM
B0hJVF9FeHAxETAPBgNVBAsMCEV4cF9UZXN0MRIwEAYDVQQDDAljZHhfdGVzdDcx
HjAcBgkqhkiG9w0BCQEWDzI4MzE5MjMoRDlhc2RhZDCCASIwDQYJKoZIhvcNAQEB
BQADggEPADCCAQoCggEBAPFxhfYVbO0HtYO+tLPAVR8xYOf6aKBtNLJ7/+j5YloE
JxL4pFuGadjGHRe2/VHspCrRY60Cd5TIJUU73KEVjExUHIqvMnJ+hujUhnEbriWp
ylXljKayxrL18Yeg4Uzlnyrj107D4nKmianyodUcw+Dby/ujEE4Z1zVXNjPQ8Phe
mOA/NZb3U+FcP1iuXFOQ+ZYqA3hdY9lunm/adBG2K8rMfWc1EPf22LodGvl1QnPH
INj41ZCyl3dpzVfLj3AWb2w4yeDBH0fU7WWUFkFMy8lUZ+fBLEIDmzyPv6H8icHM
ibeP3H9qQsyfaV6G/GzBcgvOLMHynVTu4cv6skGAkD0CAwEAATANBgkqhkiG9w0B
AQQFAAOBgQBHKKAkeEYkby4UpdKqGjXNby5NRBWHC8i8ic0Uuw1vvVP5J9TwkxLk
75LVIEGq4bnjzWdPxhojFUCveGnHVDGxBHy6LUuOJmWGixMtnd3IFJd9v2OB0Q+U
hTRrGKhG5M3xRE4MZOK1YakYcIFIm22+g2h+lV/nrnKEi2JAmBcL1g==
-----END CERTIFICATE-----
