Certificate:
    Data:
        Version: 1 (0x0)
        Serial Number: 8 (0x8)
        Signature Algorithm: md5WithRSAEncryption
        Issuer: C=CN, ST=Heilongjiang, L=Harbin, O=Test, OU=Test, CN=Test/emailAddress=2106934880@qq.com
        Validity
            Not Before: Dec 10 13:08:11 2021 GMT
            Not After : Dec 10 13:08:11 2022 GMT
        Subject: C=CN, ST=Heilongjiang, O=HIT_EXP, OU=EXP_Test, CN=cdx1190201308/emailAddress=2101230812038@qq.com
        Subject Public Key Info:
            Public Key Algorithm: rsaEncryption
                Public-Key: (2048 bit)
                Modulus:
                    00:d0:7f:22:5d:d6:84:fb:40:73:2e:29:84:b3:aa:
                    a7:a3:63:c8:1f:62:6e:a0:cd:6c:a5:c8:1a:f9:57:
                    3a:b2:92:9f:8d:9c:d9:42:94:7e:73:fe:30:0b:3e:
                    3f:93:45:ec:40:4b:93:c5:9d:df:14:60:da:c7:b4:
                    68:4d:65:1d:50:c7:60:6b:cc:8d:47:38:a3:5b:d3:
                    f4:30:fc:40:15:11:0a:4b:a4:4c:4b:95:2c:21:36:
                    31:cc:fd:1e:23:b5:02:f0:be:6f:9f:0a:f4:ed:30:
                    1a:83:0a:43:60:5a:0a:cd:e1:ae:32:a9:8a:3d:b5:
                    b4:92:39:bf:47:7f:a6:91:eb:3b:5e:72:51:b4:9c:
                    6c:1a:f5:c1:b6:52:c5:a0:66:b6:1e:c3:a0:2d:8b:
                    3d:51:85:fa:cb:f1:ea:57:30:f3:b5:85:54:7b:64:
                    9f:f4:22:f8:ae:86:84:aa:17:ba:e6:0c:e2:54:30:
                    2e:2b:c4:b8:99:0e:37:87:7a:8f:fb:bd:ec:30:c5:
                    06:4b:5e:a7:0d:c0:9d:33:20:c9:83:9f:fa:44:07:
                    4c:1d:f8:e6:99:30:5b:fa:b1:90:1d:6e:10:8c:17:
                    86:c4:78:4a:8d:20:64:6e:1f:b7:2e:80:a6:12:19:
                    61:05:f0:d0:5e:54:b4:f3:7d:69:47:57:76:1b:22:
                    e2:3d
                Exponent: 65537 (0x10001)
    Signature Algorithm: md5WithRSAEncryption
    Signature Value:
        3a:72:57:11:df:49:ca:93:af:4b:5e:d1:87:fc:05:23:be:7a:
        8d:5e:4e:40:4e:eb:ac:9f:4f:5e:fb:7f:1e:2f:54:88:bf:1a:
        d8:1b:d3:a0:24:89:02:13:8a:5f:2c:b0:3b:4c:37:4a:e8:e1:
        fd:55:2f:02:93:36:a3:3e:f3:64:8e:52:3b:b0:59:25:a6:23:
        de:58:08:99:7f:e2:eb:ad:6b:ab:43:d8:49:fd:e6:79:4c:07:
        56:78:d8:3c:ad:ba:96:53:f3:e4:df:b1:e2:b8:52:d3:4e:38:
        90:03:d2:64:3d:b9:87:b0:ce:7a:db:27:e9:c3:d2:a5:60:1b:
        62:96
-----BEGIN CERTIFICATE-----
MIIC/zCCAmgCAQgwDQYJKoZIhvcNAQEEBQAwgYQxCzAJBgNVBAYTAkNOMRUwEwYD
VQQIDAxIZWlsb25namlhbmcxDzANBgNVBAcMBkhhcmJpbjENMAsGA1UECgwEVGVz
dDENMAsGA1UECwwEVGVzdDENMAsGA1UEAwwEVGVzdDEgMB4GCSqGSIb3DQEJARYR
MjEwNjkzNDg4MEBxcS5jb20wHhcNMjExMjEwMTMwODExWhcNMjIxMjEwMTMwODEx
WjCBhjELMAkGA1UEBhMCQ04xFTATBgNVBAgMDEhlaWxvbmdqaWFuZzEQMA4GA1UE
CgwHSElUX0VYUDERMA8GA1UECwwIRVhQX1Rlc3QxFjAUBgNVBAMMDWNkeDExOTAy
MDEzMDgxIzAhBgkqhkiG9w0BCQEWFDIxMDEyMzA4MTIwMzhAcXEuY29tMIIBIjAN
BgkqhkiG9w0BAQEFAAOCAQ8AMIIBCgKCAQEA0H8iXdaE+0BzLimEs6qno2PIH2Ju
oM1spcga+Vc6spKfjZzZQpR+c/4wCz4/k0XsQEuTxZ3fFGDax7RoTWUdUMdga8yN
RzijW9P0MPxAFREKS6RMS5UsITYxzP0eI7UC8L5vnwr07TAagwpDYFoKzeGuMqmK
PbW0kjm/R3+mkes7XnJRtJxsGvXBtlLFoGa2HsOgLYs9UYX6y/HqVzDztYVUe2Sf
9CL4roaEqhe65gziVDAuK8S4mQ43h3qP+73sMMUGS16nDcCdMyDJg5/6RAdMHfjm
mTBb+rGQHW4QjBeGxHhKjSBkbh+3LoCmEhlhBfDQXlS0831pR1d2GyLiPQIDAQAB
MA0GCSqGSIb3DQEBBAUAA4GBADpyVxHfScqTr0te0Yf8BSO+eo1eTkBO66yfT177
fx4vVIi/Gtgb06AkiQITil8ssDtMN0ro4f1VLwKTNqM+82SOUjuwWSWmI95YCJl/
4uuta6tD2En95nlMB1Z42DytupZT8+TfseK4UtNOOJAD0mQ9uYewznrbJ+nD0qVg
G2KW
-----END CERTIFICATE-----
