Certificate:
    Data:
        Version: 1 (0x0)
        Serial Number: 3 (0x3)
        Signature Algorithm: md5WithRSAEncryption
        Issuer: C=CN, ST=Heilongjiang, L=Harbin, O=Test, OU=Test, CN=Test/emailAddress=2106934880@qq.com
        Validity
            Not Before: Dec 10 03:49:27 2021 GMT
            Not After : Dec 10 03:49:27 2022 GMT
        Subject: C=CN, ST=a, O=test, OU=test, CN=test/emailAddress=test
        Subject Public Key Info:
            Public Key Algorithm: rsaEncryption
                Public-Key: (1024 bit)
                Modulus:
                    00:c6:60:85:d3:f2:a2:e4:81:06:ad:b4:7d:b5:27:
                    ad:d5:63:b5:da:77:a0:37:5a:08:95:ef:67:80:5e:
                    30:cc:8d:2d:b6:c1:6c:96:23:22:80:6a:22:39:dd:
                    a3:70:19:fb:b2:20:e6:67:0e:3a:64:45:60:fb:5f:
                    23:b5:7a:aa:40:7d:d9:43:50:9c:69:75:25:b1:05:
                    bb:bf:c7:74:65:22:40:23:ea:e4:4c:23:58:9b:6a:
                    0f:89:63:2e:22:2a:92:3d:02:89:d3:cf:63:03:73:
                    9f:1e:a6:59:0f:1c:5b:19:4b:36:e8:95:a0:fd:95:
                    73:a3:ad:81:58:d0:69:e3:b3
                Exponent: 65537 (0x10001)
    Signature Algorithm: md5WithRSAEncryption
    Signature Value:
        b4:26:39:95:34:27:bb:d7:8f:98:df:b2:a6:57:0c:61:05:c6:
        2c:74:1c:68:1a:e6:bc:c5:61:8e:5c:ca:ce:c2:10:ce:24:7a:
        77:ca:50:a9:43:f2:cb:b6:ea:ec:8f:8f:ab:ad:58:69:4d:b9:
        db:6a:a5:1f:58:46:e4:a4:26:39:fd:31:84:55:dc:f2:0a:b1:
        8e:1c:d1:de:5e:4f:55:80:01:7c:d1:5e:e4:45:81:b4:67:70:
        b2:aa:07:ec:64:da:04:66:e4:ef:15:86:44:64:9a:71:ac:d6:
        ac:7d:84:19:c8:a2:c5:f3:80:df:29:8f:aa:75:01:d7:fa:14:
        e3:a3
-----BEGIN CERTIFICATE-----
MIICTzCCAbgCAQMwDQYJKoZIhvcNAQEEBQAwgYQxCzAJBgNVBAYTAkNOMRUwEwYD
VQQIDAxIZWlsb25namlhbmcxDzANBgNVBAcMBkhhcmJpbjENMAsGA1UECgwEVGVz
dDENMAsGA1UECwwEVGVzdDENMAsGA1UEAwwEVGVzdDEgMB4GCSqGSIb3DQEJARYR
MjEwNjkzNDg4MEBxcS5jb20wHhcNMjExMjEwMDM0OTI3WhcNMjIxMjEwMDM0OTI3
WjBbMQswCQYDVQQGEwJDTjEKMAgGA1UECAwBYTENMAsGA1UECgwEdGVzdDENMAsG
A1UECwwEdGVzdDENMAsGA1UEAwwEdGVzdDETMBEGCSqGSIb3DQEJARYEdGVzdDCB
nzANBgkqhkiG9w0BAQEFAAOBjQAwgYkCgYEAxmCF0/Ki5IEGrbR9tSet1WO12neg
N1oIle9ngF4wzI0ttsFsliMigGoiOd2jcBn7siDmZw46ZEVg+18jtXqqQH3ZQ1Cc
aXUlsQW7v8d0ZSJAI+rkTCNYm2oPiWMuIiqSPQKJ089jA3OfHqZZDxxbGUs26JWg
/ZVzo62BWNBp47MCAwEAATANBgkqhkiG9w0BAQQFAAOBgQC0JjmVNCe714+Y37Km
VwxhBcYsdBxoGua8xWGOXMrOwhDOJHp3ylCpQ/LLtursj4+rrVhpTbnbaqUfWEbk
pCY5/TGEVdzyCrGOHNHeXk9VgAF80V7kRYG0Z3CyqgfsZNoEZuTvFYZEZJpxrNas
fYQZyKLF84DfKY+qdQHX+hTjow==
-----END CERTIFICATE-----
