Certificate:
    Data:
        Version: 1 (0x0)
        Serial Number: 4 (0x4)
        Signature Algorithm: md5WithRSAEncryption
        Issuer: C=CN, ST=Heilongjiang, L=Harbin, O=Test, OU=Test, CN=Test/emailAddress=2106934880@qq.com
        Validity
            Not Before: Dec 10 04:36:38 2021 GMT
            Not After : Dec 10 04:36:38 2022 GMT
        Subject: C=CN, ST=Harbin, O=Test, OU=Bisd, CN=cdx119201038/emailAddress=12931293u@qdqwe
        Subject Public Key Info:
            Public Key Algorithm: rsaEncryption
                Public-Key: (2048 bit)
                Modulus:
                    00:c6:fe:a0:70:a5:57:c3:c2:be:ca:f6:00:29:25:
                    30:73:a3:f0:e0:11:f7:7f:ed:9e:3d:4f:9f:5b:78:
                    5a:08:84:dc:b4:ab:a6:e3:88:eb:50:83:eb:96:53:
                    27:74:77:6b:cb:be:b9:5f:bf:e9:a0:fa:12:a4:56:
                    cf:3a:64:1c:9d:28:e8:3e:6e:74:0f:e5:ac:a6:42:
                    55:07:17:47:d6:9f:0e:34:1f:e9:e6:ec:9d:9a:43:
                    03:0f:ed:2a:ea:ed:8f:d6:22:84:b8:00:ed:54:3c:
                    9e:1c:53:fb:5d:5f:32:ee:e5:7b:d6:1b:e7:99:4b:
                    31:2e:9a:f5:40:a1:71:bc:c5:9d:65:15:70:b9:7d:
                    fd:ae:a9:ed:d2:1b:25:ef:ad:29:70:73:9a:cf:d4:
                    78:3a:6e:ea:52:d4:99:36:17:0b:bf:1e:36:45:fe:
                    a6:6c:bb:83:9e:49:45:e3:fa:a3:23:57:0a:11:aa:
                    49:4e:58:29:04:01:3a:6d:b5:3f:3d:98:b7:9f:e8:
                    46:1b:96:ad:3a:49:7a:cd:ab:88:90:5c:47:02:8f:
                    b9:86:ad:cd:3e:8b:0d:a2:0f:5f:06:a2:26:64:8c:
                    c8:c9:f0:2f:5b:88:14:f8:b2:40:ec:c1:38:13:9e:
                    5d:cb:c9:5a:2c:99:78:7c:b7:b0:52:ec:62:9e:74:
                    b0:25
                Exponent: 65537 (0x10001)
    Signature Algorithm: md5WithRSAEncryption
    Signature Value:
        61:7e:04:50:c2:fe:a1:be:1e:97:0e:ce:5d:87:98:fa:cb:13:
        8b:b2:33:03:52:06:fd:c6:d7:0d:e2:67:8a:10:50:11:70:bf:
        4d:eb:73:3c:0e:fa:03:8d:8d:6c:f3:5b:c3:78:c0:ef:1c:9b:
        07:f2:fa:ec:e4:f9:5c:9a:a2:e1:ad:ae:f8:a9:e3:49:fc:98:
        25:93:85:a7:15:12:b3:07:01:4d:ba:67:fd:d0:18:98:8e:6e:
        1e:2c:85:f7:bb:c9:77:00:c1:5a:79:f6:e3:4c:79:45:08:4e:
        5b:7e:fb:f6:c6:e9:34:94:1c:2b:65:52:cc:f9:e8:7c:66:30:
        2c:cd
-----BEGIN CERTIFICATE-----
MIIC6zCCAlQCAQQwDQYJKoZIhvcNAQEEBQAwgYQxCzAJBgNVBAYTAkNOMRUwEwYD
VQQIDAxIZWlsb25namlhbmcxDzANBgNVBAcMBkhhcmJpbjENMAsGA1UECgwEVGVz
dDENMAsGA1UECwwEVGVzdDENMAsGA1UEAwwEVGVzdDEgMB4GCSqGSIb3DQEJARYR
MjEwNjkzNDg4MEBxcS5jb20wHhcNMjExMjEwMDQzNjM4WhcNMjIxMjEwMDQzNjM4
WjBzMQswCQYDVQQGEwJDTjEPMA0GA1UECAwGSGFyYmluMQ0wCwYDVQQKDARUZXN0
MQ0wCwYDVQQLDARCaXNkMRUwEwYDVQQDDAxjZHgxMTkyMDEwMzgxHjAcBgkqhkiG
9w0BCQEWDzEyOTMxMjkzdUBxZHF3ZTCCASIwDQYJKoZIhvcNAQEBBQADggEPADCC
AQoCggEBAMb+oHClV8PCvsr2ACklMHOj8OAR93/tnj1Pn1t4WgiE3LSrpuOI61CD
65ZTJ3R3a8u+uV+/6aD6EqRWzzpkHJ0o6D5udA/lrKZCVQcXR9afDjQf6ebsnZpD
Aw/tKurtj9YihLgA7VQ8nhxT+11fMu7le9Yb55lLMS6a9UChcbzFnWUVcLl9/a6p
7dIbJe+tKXBzms/UeDpu6lLUmTYXC78eNkX+pmy7g55JReP6oyNXChGqSU5YKQQB
Om21Pz2Yt5/oRhuWrTpJes2riJBcRwKPuYatzT6LDaIPXwaiJmSMyMnwL1uIFPiy
QOzBOBOeXcvJWiyZeHy3sFLsYp50sCUCAwEAATANBgkqhkiG9w0BAQQFAAOBgQBh
fgRQwv6hvh6XDs5dh5j6yxOLsjMDUgb9xtcN4meKEFARcL9N63M8DvoDjY1s81vD
eMDvHJsH8vrs5PlcmqLhra74qeNJ/Jglk4WnFRKzBwFNumf90BiYjm4eLIX3u8l3
AMFaefbjTHlFCE5bfvv2xuk0lBwrZVLM+eh8ZjAszQ==
-----END CERTIFICATE-----
