Certificate:
    Data:
        Version: 1 (0x0)
        Serial Number: 1 (0x1)
        Signature Algorithm: md5WithRSAEncryption
        Issuer: C=CN, ST=Heilongjiang, L=Harbin, O=Test, OU=Test, CN=Test/emailAddress=2106934880@qq.com
        Validity
            Not Before: Nov 21 07:42:12 2021 GMT
            Not After : Nov 21 07:42:12 2022 GMT
        Subject: C=CN, ST=a, O=test, OU=test, CN=test/emailAddress=test
        Subject Public Key Info:
            Public Key Algorithm: rsaEncryption
                Public-Key: (1024 bit)
                Modulus:
                    00:c6:60:85:d3:f2:a2:e4:81:06:ad:b4:7d:b5:27:
                    ad:d5:63:b5:da:77:a0:37:5a:08:95:ef:67:80:5e:
                    30:cc:8d:2d:b6:c1:6c:96:23:22:80:6a:22:39:dd:
                    a3:70:19:fb:b2:20:e6:67:0e:3a:64:45:60:fb:5f:
                    23:b5:7a:aa:40:7d:d9:43:50:9c:69:75:25:b1:05:
                    bb:bf:c7:74:65:22:40:23:ea:e4:4c:23:58:9b:6a:
                    0f:89:63:2e:22:2a:92:3d:02:89:d3:cf:63:03:73:
                    9f:1e:a6:59:0f:1c:5b:19:4b:36:e8:95:a0:fd:95:
                    73:a3:ad:81:58:d0:69:e3:b3
                Exponent: 65537 (0x10001)
    Signature Algorithm: md5WithRSAEncryption
    Signature Value:
        00:9a:86:37:b0:91:ce:4b:17:15:41:b4:2b:1d:41:76:d2:12:
        83:3b:fc:8b:e8:49:b2:d8:66:a7:74:90:83:54:0c:df:5d:35:
        8b:f9:a2:0e:6a:b5:8b:16:1c:0f:6d:77:b0:af:7d:ab:1c:2d:
        7f:81:e2:06:bd:a6:20:53:31:84:0e:75:8d:c3:98:6a:23:b4:
        97:94:8d:02:06:cf:f9:a5:f3:c8:39:78:4e:05:3a:c5:89:2b:
        28:41:8e:85:20:e1:f4:62:b0:f9:16:f9:d2:67:73:80:af:1c:
        f1:ce:a9:17:dd:48:fa:da:ca:29:66:f1:3d:2d:2b:1b:a4:cc:
        8d:65
-----BEGIN CERTIFICATE-----
MIICTzCCAbgCAQEwDQYJKoZIhvcNAQEEBQAwgYQxCzAJBgNVBAYTAkNOMRUwEwYD
VQQIDAxIZWlsb25namlhbmcxDzANBgNVBAcMBkhhcmJpbjENMAsGA1UECgwEVGVz
dDENMAsGA1UECwwEVGVzdDENMAsGA1UEAwwEVGVzdDEgMB4GCSqGSIb3DQEJARYR
MjEwNjkzNDg4MEBxcS5jb20wHhcNMjExMTIxMDc0MjEyWhcNMjIxMTIxMDc0MjEy
WjBbMQswCQYDVQQGEwJDTjEKMAgGA1UECAwBYTENMAsGA1UECgwEdGVzdDENMAsG
A1UECwwEdGVzdDENMAsGA1UEAwwEdGVzdDETMBEGCSqGSIb3DQEJARYEdGVzdDCB
nzANBgkqhkiG9w0BAQEFAAOBjQAwgYkCgYEAxmCF0/Ki5IEGrbR9tSet1WO12neg
N1oIle9ngF4wzI0ttsFsliMigGoiOd2jcBn7siDmZw46ZEVg+18jtXqqQH3ZQ1Cc
aXUlsQW7v8d0ZSJAI+rkTCNYm2oPiWMuIiqSPQKJ089jA3OfHqZZDxxbGUs26JWg
/ZVzo62BWNBp47MCAwEAATANBgkqhkiG9w0BAQQFAAOBgQAAmoY3sJHOSxcVQbQr
HUF20hKDO/yL6Emy2GandJCDVAzfXTWL+aIOarWLFhwPbXewr32rHC1/geIGvaYg
UzGEDnWNw5hqI7SXlI0CBs/5pfPIOXhOBTrFiSsoQY6FIOH0YrD5FvnSZ3OArxzx
zqkX3Uj62sopZvE9LSsbpMyNZQ==
-----END CERTIFICATE-----
