Certificate:
    Data:
        Version: 1 (0x0)
        Serial Number: 2 (0x2)
        Signature Algorithm: md5WithRSAEncryption
        Issuer: C=CN, ST=Heilongjiang, L=Harbin, O=Test, OU=Test, CN=Test/emailAddress=2106934880@qq.com
        Validity
            Not Before: Dec  5 04:36:24 2021 GMT
            Not After : Dec  5 04:36:24 2022 GMT
        Subject: C=CN, ST=HeiLongJiang, O=HITexptest, OU=test1, CN=hit_cdx/emailAddress=2106934880@qq.com
        Subject Public Key Info:
            Public Key Algorithm: rsaEncryption
                Public-Key: (1024 bit)
                Modulus:
                    00:c6:60:85:d3:f2:a2:e4:81:06:ad:b4:7d:b5:27:
                    ad:d5:63:b5:da:77:a0:37:5a:08:95:ef:67:80:5e:
                    30:cc:8d:2d:b6:c1:6c:96:23:22:80:6a:22:39:dd:
                    a3:70:19:fb:b2:20:e6:67:0e:3a:64:45:60:fb:5f:
                    23:b5:7a:aa:40:7d:d9:43:50:9c:69:75:25:b1:05:
                    bb:bf:c7:74:65:22:40:23:ea:e4:4c:23:58:9b:6a:
                    0f:89:63:2e:22:2a:92:3d:02:89:d3:cf:63:03:73:
                    9f:1e:a6:59:0f:1c:5b:19:4b:36:e8:95:a0:fd:95:
                    73:a3:ad:81:58:d0:69:e3:b3
                Exponent: 65537 (0x10001)
    Signature Algorithm: md5WithRSAEncryption
    Signature Value:
        7f:a9:b0:98:ec:46:a8:c2:58:49:0e:3e:aa:46:cf:a5:27:81:
        f6:1b:fb:01:98:04:a8:b0:d5:86:33:71:ad:42:5b:06:61:88:
        29:3f:ab:6d:21:b4:a6:f9:71:a0:94:b2:4c:1f:28:d5:90:56:
        50:82:b3:1a:85:55:ee:dd:99:1a:c5:ca:2c:3f:24:f0:c6:13:
        d4:7b:3f:bf:38:d6:95:06:88:8f:c5:ae:2c:e3:11:17:a6:0c:
        32:75:82:45:7f:02:72:84:97:16:a5:ea:9d:08:f5:8c:9a:ea:
        a0:04:fa:fa:ee:c8:38:fe:cf:d0:04:18:b9:d1:aa:e6:40:ee:
        52:1b
-----BEGIN CERTIFICATE-----
MIICcTCCAdoCAQIwDQYJKoZIhvcNAQEEBQAwgYQxCzAJBgNVBAYTAkNOMRUwEwYD
VQQIDAxIZWlsb25namlhbmcxDzANBgNVBAcMBkhhcmJpbjENMAsGA1UECgwEVGVz
dDENMAsGA1UECwwEVGVzdDENMAsGA1UEAwwEVGVzdDEgMB4GCSqGSIb3DQEJARYR
MjEwNjkzNDg4MEBxcS5jb20wHhcNMjExMjA1MDQzNjI0WhcNMjIxMjA1MDQzNjI0
WjB9MQswCQYDVQQGEwJDTjEVMBMGA1UECAwMSGVpTG9uZ0ppYW5nMRMwEQYDVQQK
DApISVRleHB0ZXN0MQ4wDAYDVQQLDAV0ZXN0MTEQMA4GA1UEAwwHaGl0X2NkeDEg
MB4GCSqGSIb3DQEJARYRMjEwNjkzNDg4MEBxcS5jb20wgZ8wDQYJKoZIhvcNAQEB
BQADgY0AMIGJAoGBAMZghdPyouSBBq20fbUnrdVjtdp3oDdaCJXvZ4BeMMyNLbbB
bJYjIoBqIjndo3AZ+7Ig5mcOOmRFYPtfI7V6qkB92UNQnGl1JbEFu7/HdGUiQCPq
5EwjWJtqD4ljLiIqkj0CidPPYwNznx6mWQ8cWxlLNuiVoP2Vc6OtgVjQaeOzAgMB
AAEwDQYJKoZIhvcNAQEEBQADgYEAf6mwmOxGqMJYSQ4+qkbPpSeB9hv7AZgEqLDV
hjNxrUJbBmGIKT+rbSG0pvlxoJSyTB8o1ZBWUIKzGoVV7t2ZGsXKLD8k8MYT1Hs/
vzjWlQaIj8WuLOMRF6YMMnWCRX8CcoSXFqXqnQj1jJrqoAT6+u7IOP7P0AQYudGq
5kDuUhs=
-----END CERTIFICATE-----
