Certificate:
    Data:
        Version: 1 (0x0)
        Serial Number: 5 (0x5)
        Signature Algorithm: md5WithRSAEncryption
        Issuer: C=CN, ST=Heilongjiang, L=Harbin, O=Test, OU=Test, CN=Test/emailAddress=2106934880@qq.com
        Validity
            Not Before: Dec 10 08:01:17 2021 GMT
            Not After : Dec 10 08:01:17 2022 GMT
        Subject: C=CN, ST=Heilongjiang, O=HIT_Cry_Exp, OU=Exp_test, CN=cdx1190201308/emailAddress=771697903@qq.com
        Subject Public Key Info:
            Public Key Algorithm: rsaEncryption
                Public-Key: (2048 bit)
                Modulus:
                    00:94:3e:aa:ee:48:f2:5a:d6:f6:42:c1:3f:cb:3e:
                    4d:8f:72:8e:be:46:a7:42:ae:a7:f9:76:15:fa:a4:
                    01:17:22:6c:c1:00:93:85:8c:29:f4:b4:70:a7:c1:
                    8d:a7:b6:3f:e9:7e:1e:56:48:8a:76:e8:90:27:36:
                    b3:02:9a:b3:8c:3e:33:82:00:da:32:bf:e4:9c:79:
                    a2:9d:7f:b2:56:3a:fc:70:69:1c:38:14:a7:f6:24:
                    07:6e:10:4d:81:84:63:43:34:ab:94:bb:c3:60:e9:
                    d6:d5:4b:51:6b:0f:41:40:1b:5b:37:76:4d:aa:bc:
                    e6:45:99:52:95:5c:0e:db:9c:c9:61:cb:47:75:97:
                    a2:94:78:21:5d:d8:29:e4:12:bf:ee:46:3f:9e:db:
                    21:8e:1e:47:f0:b6:d7:a7:f2:b9:fd:86:2a:b8:be:
                    72:e3:d9:1b:7b:f9:c3:59:27:c5:64:a0:68:5f:3b:
                    db:4a:15:13:31:92:f0:d6:c1:b3:a1:8c:48:f8:4a:
                    e6:b9:68:4d:aa:6d:70:fb:de:ff:80:20:6a:b3:68:
                    20:34:44:29:82:02:92:dc:52:4d:7a:53:70:15:20:
                    31:62:e2:54:cf:7e:78:6b:78:cd:76:89:19:5c:61:
                    e4:b4:6e:31:1d:11:67:94:17:bc:35:3d:3b:cf:c5:
                    20:e1
                Exponent: 65537 (0x10001)
    Signature Algorithm: md5WithRSAEncryption
    Signature Value:
        a8:4f:93:b8:37:1b:a2:c6:a3:42:9d:ec:3c:58:4a:3d:7e:df:
        9b:a2:cf:d0:01:e8:c0:93:70:52:64:25:02:29:b3:04:17:7e:
        73:7b:c3:fd:7a:9c:8c:35:30:8d:c7:11:3d:47:f9:4d:dd:05:
        9b:4a:c0:8e:a8:7b:64:d8:8d:35:44:fa:46:4f:6b:18:ef:7a:
        ae:9b:2f:30:fb:f7:b0:1a:07:f8:bb:d7:3c:62:37:3b:6d:5e:
        cf:83:e3:cc:9e:9a:88:1b:bc:54:17:2d:33:18:6f:81:cc:48:
        1e:8e:ff:d9:fb:8f:0e:2c:54:92:d8:ba:7e:25:26:05:ed:24:
        01:25
-----BEGIN CERTIFICATE-----
MIIC/zCCAmgCAQUwDQYJKoZIhvcNAQEEBQAwgYQxCzAJBgNVBAYTAkNOMRUwEwYD
VQQIDAxIZWlsb25namlhbmcxDzANBgNVBAcMBkhhcmJpbjENMAsGA1UECgwEVGVz
dDENMAsGA1UECwwEVGVzdDENMAsGA1UEAwwEVGVzdDEgMB4GCSqGSIb3DQEJARYR
MjEwNjkzNDg4MEBxcS5jb20wHhcNMjExMjEwMDgwMTE3WhcNMjIxMjEwMDgwMTE3
WjCBhjELMAkGA1UEBhMCQ04xFTATBgNVBAgMDEhlaWxvbmdqaWFuZzEUMBIGA1UE
CgwLSElUX0NyeV9FeHAxETAPBgNVBAsMCEV4cF90ZXN0MRYwFAYDVQQDDA1jZHgx
MTkwMjAxMzA4MR8wHQYJKoZIhvcNAQkBFhA3NzE2OTc5MDNAcXEuY29tMIIBIjAN
BgkqhkiG9w0BAQEFAAOCAQ8AMIIBCgKCAQEAlD6q7kjyWtb2QsE/yz5Nj3KOvkan
Qq6n+XYV+qQBFyJswQCThYwp9LRwp8GNp7Y/6X4eVkiKduiQJzazApqzjD4zggDa
Mr/knHminX+yVjr8cGkcOBSn9iQHbhBNgYRjQzSrlLvDYOnW1UtRaw9BQBtbN3ZN
qrzmRZlSlVwO25zJYctHdZeilHghXdgp5BK/7kY/ntshjh5H8LbXp/K5/YYquL5y
49kbe/nDWSfFZKBoXzvbShUTMZLw1sGzoYxI+ErmuWhNqm1w+97/gCBqs2ggNEQp
ggKS3FJNelNwFSAxYuJUz354a3jNdokZXGHktG4xHRFnlBe8NT07z8Ug4QIDAQAB
MA0GCSqGSIb3DQEBBAUAA4GBAKhPk7g3G6LGo0Kd7DxYSj1+35uiz9AB6MCTcFJk
JQIpswQXfnN7w/16nIw1MI3HET1H+U3dBZtKwI6oe2TYjTVE+kZPaxjveq6bLzD7
97AaB/i71zxiNzttXs+D48yemogbvFQXLTMYb4HMSB6O/9n7jw4sVJLYun4lJgXt
JAEl
-----END CERTIFICATE-----
