Certificate:
    Data:
        Version: 1 (0x0)
        Serial Number: 6 (0x6)
        Signature Algorithm: md5WithRSAEncryption
        Issuer: C=CN, ST=Heilongjiang, L=Harbin, O=Test, OU=Test, CN=Test/emailAddress=2106934880@qq.com
        Validity
            Not Before: Dec 10 08:15:27 2021 GMT
            Not After : Dec 10 08:15:27 2022 GMT
        Subject: C=CN, ST=Heilongjiang, O=HITCryExp, OU=Test3, CN=cdx1190201308/emailAddress=2106934880@qq.ocm
        Subject Public Key Info:
            Public Key Algorithm: rsaEncryption
                Public-Key: (2048 bit)
                Modulus:
                    00:91:b8:dd:17:bc:af:8e:c4:9d:e7:21:d4:a3:14:
                    97:66:91:53:44:93:90:b6:e3:d9:06:50:82:92:cd:
                    c0:89:34:0f:cf:ab:f3:f5:9b:79:0c:b6:70:16:e4:
                    a3:ef:bf:1e:8a:46:c2:f1:30:e2:6e:ed:c4:e9:b6:
                    84:ab:bc:6d:ed:0f:e5:2c:d0:63:50:c7:fc:f2:90:
                    83:f9:d0:26:43:9d:47:63:ef:63:12:1a:23:34:30:
                    d6:4b:67:a4:94:fd:1c:ea:79:91:c5:54:17:b1:30:
                    ca:70:83:f7:c5:43:f4:92:28:5a:e2:9a:5e:d5:28:
                    72:8c:ca:75:b7:96:05:48:e9:fa:3d:d9:45:4f:91:
                    d6:8d:6c:80:a6:77:c4:62:3b:1f:5f:e5:13:95:8f:
                    f2:a7:cf:5b:a0:a4:8c:41:ef:93:8a:f7:4b:a8:f1:
                    0d:59:9f:8e:dc:3c:a9:65:55:b4:85:95:07:32:dc:
                    7d:52:b8:46:98:90:8b:92:e3:fd:e0:df:c3:03:a2:
                    a7:4c:eb:e4:e2:37:26:67:7a:cf:e2:68:07:49:53:
                    a3:b1:cc:4e:39:36:37:e1:1a:25:b3:a4:d8:29:44:
                    00:ee:b5:0f:98:84:64:08:cf:70:92:dd:10:0e:ac:
                    23:0c:54:ce:74:d3:f0:49:98:84:b7:be:7e:7f:35:
                    fa:8b
                Exponent: 65537 (0x10001)
    Signature Algorithm: md5WithRSAEncryption
    Signature Value:
        27:b2:cf:4c:2c:4a:aa:8c:3b:90:e6:e9:b2:5c:18:9e:a2:2b:
        4c:6f:98:69:76:08:1b:a8:20:92:b7:30:aa:b5:13:fe:60:f7:
        95:04:d4:14:d2:57:69:44:7e:f4:60:cf:ec:a0:71:f3:d2:18:
        d1:c5:a0:a4:2a:5d:4b:74:c6:a0:af:e5:fc:6d:3e:de:8c:90:
        b2:ee:20:a8:ed:27:3a:a4:76:1e:60:76:ef:74:4f:c1:3a:23:
        69:3c:29:a7:0f:53:2d:ac:f4:41:cf:d8:ed:07:1b:93:67:99:
        c2:09:2b:6f:c3:9f:03:3a:19:02:dc:e4:8e:8b:bb:d8:ac:b0:
        11:dc
-----BEGIN CERTIFICATE-----
MIIC+zCCAmQCAQYwDQYJKoZIhvcNAQEEBQAwgYQxCzAJBgNVBAYTAkNOMRUwEwYD
VQQIDAxIZWlsb25namlhbmcxDzANBgNVBAcMBkhhcmJpbjENMAsGA1UECgwEVGVz
dDENMAsGA1UECwwEVGVzdDENMAsGA1UEAwwEVGVzdDEgMB4GCSqGSIb3DQEJARYR
MjEwNjkzNDg4MEBxcS5jb20wHhcNMjExMjEwMDgxNTI3WhcNMjIxMjEwMDgxNTI3
WjCBgjELMAkGA1UEBhMCQ04xFTATBgNVBAgMDEhlaWxvbmdqaWFuZzESMBAGA1UE
CgwJSElUQ3J5RXhwMQ4wDAYDVQQLDAVUZXN0MzEWMBQGA1UEAwwNY2R4MTE5MDIw
MTMwODEgMB4GCSqGSIb3DQEJARYRMjEwNjkzNDg4MEBxcS5vY20wggEiMA0GCSqG
SIb3DQEBAQUAA4IBDwAwggEKAoIBAQCRuN0XvK+OxJ3nIdSjFJdmkVNEk5C249kG
UIKSzcCJNA/Pq/P1m3kMtnAW5KPvvx6KRsLxMOJu7cTptoSrvG3tD+Us0GNQx/zy
kIP50CZDnUdj72MSGiM0MNZLZ6SU/RzqeZHFVBexMMpwg/fFQ/SSKFriml7VKHKM
ynW3lgVI6fo92UVPkdaNbICmd8RiOx9f5ROVj/Knz1ugpIxB75OK90uo8Q1Zn47c
PKllVbSFlQcy3H1SuEaYkIuS4/3g38MDoqdM6+TiNyZnes/iaAdJU6OxzE45Njfh
GiWzpNgpRADutQ+YhGQIz3CS3RAOrCMMVM500/BJmIS3vn5/NfqLAgMBAAEwDQYJ
KoZIhvcNAQEEBQADgYEAJ7LPTCxKqow7kObpslwYnqIrTG+YaXYIG6ggkrcwqrUT
/mD3lQTUFNJXaUR+9GDP7KBx89IY0cWgpCpdS3TGoK/l/G0+3oyQsu4gqO0nOqR2
HmB273RPwTojaTwppw9TLaz0Qc/Y7Qcbk2eZwgkrb8OfAzoZAtzkjou72KywEdw=
-----END CERTIFICATE-----
