Certificate:
    Data:
        Version: 1 (0x0)
        Serial Number: 7 (0x7)
        Signature Algorithm: md5WithRSAEncryption
        Issuer: C=CN, ST=Heilongjiang, L=Harbin, O=Test, OU=Test, CN=Test/emailAddress=2106934880@qq.com
        Validity
            Not Before: Dec 10 08:42:32 2021 GMT
            Not After : Dec 10 08:42:32 2022 GMT
        Subject: C=CN, ST=Heilongjiang, O=exp_test3, OU=exp_test3, CN=cdx1902130123/emailAddress=1232131@dqdfqf
        Subject Public Key Info:
            Public Key Algorithm: rsaEncryption
                Public-Key: (2048 bit)
                Modulus:
                    00:ac:d4:36:dc:9b:d0:c8:23:9e:6f:27:29:5c:1d:
                    2b:fc:bc:69:66:c9:09:6d:6a:b2:69:6a:a8:93:aa:
                    71:d8:76:bb:d5:2f:5a:93:55:35:bd:90:10:50:cb:
                    a3:48:53:b4:ec:81:f1:d4:6a:51:aa:92:dd:95:e2:
                    d7:44:24:df:0a:56:79:cb:a4:37:89:e7:9b:96:ab:
                    54:c4:e3:d4:8b:6f:66:1b:fc:90:2f:f6:58:59:96:
                    f5:ac:72:0f:15:32:cf:cc:80:c1:e8:bc:2f:05:4f:
                    79:7a:f1:a6:0b:ed:2d:26:52:8c:75:3d:0b:99:a2:
                    30:3c:78:c2:4b:87:c6:01:a9:76:cd:54:63:e0:45:
                    c1:30:ed:09:9a:52:d8:14:ef:2f:70:de:33:3b:0b:
                    db:be:d1:35:d1:c0:0e:2b:03:35:cd:24:ae:2b:ec:
                    9d:bb:f6:4a:4d:60:14:4a:a0:1e:31:94:d7:d5:cf:
                    9b:3f:2c:ad:f1:f5:5a:4d:0e:4a:4b:3b:4d:06:f6:
                    85:0e:c3:e1:89:bf:a3:48:98:2c:03:87:b6:d3:89:
                    ee:5f:32:aa:df:be:e9:3a:59:e3:ae:c3:9c:66:4c:
                    4d:66:8e:cc:01:2e:25:75:7d:e4:83:bd:f0:2d:84:
                    09:10:7e:ac:d5:f6:94:35:5d:cf:56:e2:c1:00:33:
                    3f:bf
                Exponent: 65537 (0x10001)
    Signature Algorithm: md5WithRSAEncryption
    Signature Value:
        8a:19:d7:54:33:f0:59:76:53:a4:7c:e0:6f:bd:7c:90:8a:e9:
        eb:77:96:55:93:53:94:22:24:89:b2:4f:b1:30:15:e4:d4:35:
        61:7e:87:27:8a:ff:9b:03:c7:12:b8:4a:f3:d0:02:02:0a:15:
        11:23:83:4a:67:60:48:ba:b3:ef:21:95:4e:ef:06:f1:75:9f:
        3c:bc:44:f0:27:01:3a:b3:2f:74:75:4b:1f:86:fd:8d:f9:f0:
        41:5e:5a:3b:84:3f:46:2d:a7:b1:96:78:ad:ad:e8:28:fe:53:
        52:95:ac:f5:8d:00:6c:7a:d4:be:11:ea:c6:84:2e:1e:c0:6d:
        f7:10
-----BEGIN CERTIFICATE-----
MIIC/DCCAmUCAQcwDQYJKoZIhvcNAQEEBQAwgYQxCzAJBgNVBAYTAkNOMRUwEwYD
VQQIDAxIZWlsb25namlhbmcxDzANBgNVBAcMBkhhcmJpbjENMAsGA1UECgwEVGVz
dDENMAsGA1UECwwEVGVzdDENMAsGA1UEAwwEVGVzdDEgMB4GCSqGSIb3DQEJARYR
MjEwNjkzNDg4MEBxcS5jb20wHhcNMjExMjEwMDg0MjMyWhcNMjIxMjEwMDg0MjMy
WjCBgzELMAkGA1UEBhMCQ04xFTATBgNVBAgMDEhlaWxvbmdqaWFuZzESMBAGA1UE
CgwJZXhwX3Rlc3QzMRIwEAYDVQQLDAlleHBfdGVzdDMxFjAUBgNVBAMMDWNkeDE5
MDIxMzAxMjMxHTAbBgkqhkiG9w0BCQEWDjEyMzIxMzFAZHFkZnFmMIIBIjANBgkq
hkiG9w0BAQEFAAOCAQ8AMIIBCgKCAQEArNQ23JvQyCOebycpXB0r/LxpZskJbWqy
aWqok6px2Ha71S9ak1U1vZAQUMujSFO07IHx1GpRqpLdleLXRCTfClZ5y6Q3ieeb
lqtUxOPUi29mG/yQL/ZYWZb1rHIPFTLPzIDB6LwvBU95evGmC+0tJlKMdT0LmaIw
PHjCS4fGAal2zVRj4EXBMO0JmlLYFO8vcN4zOwvbvtE10cAOKwM1zSSuK+ydu/ZK
TWAUSqAeMZTX1c+bPyyt8fVaTQ5KSztNBvaFDsPhib+jSJgsA4e204nuXzKq377p
OlnjrsOcZkxNZo7MAS4ldX3kg73wLYQJEH6s1faUNV3PVuLBADM/vwIDAQABMA0G
CSqGSIb3DQEBBAUAA4GBAIoZ11Qz8Fl2U6R84G+9fJCK6et3llWTU5QiJImyT7Ew
FeTUNWF+hyeK/5sDxxK4SvPQAgIKFREjg0pnYEi6s+8hlU7vBvF1nzy8RPAnATqz
L3R1Sx+G/Y358EFeWjuEP0Ytp7GWeK2t6Cj+U1KVrPWNAGx61L4R6saELh7AbfcQ
-----END CERTIFICATE-----
