Certificate:
    Data:
        Version: 1 (0x0)
        Serial Number: 9 (0x9)
        Signature Algorithm: md5WithRSAEncryption
        Issuer: C=CN, ST=Heilongjiang, L=Harbin, O=Test, OU=Test, CN=Test/emailAddress=2106934880@qq.com
        Validity
            Not Before: Dec 10 13:53:38 2021 GMT
            Not After : Dec 10 13:53:38 2022 GMT
        Subject: C=CN, ST=Heilongjiang, O=HIT_EXP, OU=EXP_test, CN=cdx/emailAddress=12301032810@adak.com
        Subject Public Key Info:
            Public Key Algorithm: rsaEncryption
                Public-Key: (2048 bit)
                Modulus:
                    00:9a:1f:88:80:ac:a3:c9:f6:ac:b4:5b:2b:86:e0:
                    ae:52:8b:4a:db:ae:39:91:82:6b:7c:1f:d1:9b:66:
                    2b:37:52:50:9e:33:68:50:65:c3:92:9b:2e:a1:69:
                    7f:31:c9:40:df:7a:56:ac:32:bc:d9:b0:29:aa:7d:
                    e6:3b:b9:e2:bf:00:54:0a:4d:f8:ef:a2:a0:08:b9:
                    94:d6:80:96:d3:de:23:aa:08:da:f7:78:b8:43:81:
                    21:83:90:b7:10:a9:f7:7c:b3:64:84:92:67:33:63:
                    79:d2:cf:39:7f:57:fc:a3:28:9a:a7:6b:40:83:61:
                    16:d5:f9:dd:c2:20:db:bd:67:66:8c:08:c2:07:49:
                    42:b4:92:de:91:be:ec:7b:3b:08:c0:6a:1f:5d:60:
                    e2:a2:ad:45:4f:f6:fa:28:b7:53:dc:77:29:dc:71:
                    a2:86:d0:27:76:19:65:6b:d0:1d:5f:5b:59:cb:09:
                    d9:6a:9c:79:5c:3b:af:82:09:1a:ba:d4:8e:01:9c:
                    2b:c2:6d:37:82:5b:51:61:9f:46:97:29:03:66:55:
                    43:71:af:4e:01:34:c6:57:00:10:08:bf:8b:44:3f:
                    07:c2:c7:81:44:41:80:df:5a:8d:20:dc:89:c7:57:
                    b3:3a:95:ea:01:a6:f0:93:54:81:ef:1b:05:aa:85:
                    96:8b
                Exponent: 65537 (0x10001)
    Signature Algorithm: md5WithRSAEncryption
    Signature Value:
        43:c6:f5:7f:2d:6b:b6:dd:46:89:ae:e1:46:da:9e:2c:83:78:
        33:d2:de:8b:8d:ca:74:ca:df:00:0f:4b:42:cd:c0:ca:8e:ac:
        33:34:5e:c0:a1:73:94:6c:90:93:12:6b:4a:75:8a:a4:cc:73:
        b6:80:ab:2d:21:d5:66:51:7e:2b:d7:c9:18:3c:a4:66:40:39:
        77:25:a8:e2:c7:74:3e:fa:5a:25:81:d3:84:ea:ce:9c:6d:e8:
        35:dc:83:90:50:86:82:d7:9f:10:27:74:a8:7a:13:d0:cc:03:
        62:06:03:b2:50:40:4f:a8:32:42:d8:68:19:31:55:6c:52:13:
        23:f3
-----BEGIN CERTIFICATE-----
MIIC9DCCAl0CAQkwDQYJKoZIhvcNAQEEBQAwgYQxCzAJBgNVBAYTAkNOMRUwEwYD
VQQIDAxIZWlsb25namlhbmcxDzANBgNVBAcMBkhhcmJpbjENMAsGA1UECgwEVGVz
dDENMAsGA1UECwwEVGVzdDENMAsGA1UEAwwEVGVzdDEgMB4GCSqGSIb3DQEJARYR
MjEwNjkzNDg4MEBxcS5jb20wHhcNMjExMjEwMTM1MzM4WhcNMjIxMjEwMTM1MzM4
WjB8MQswCQYDVQQGEwJDTjEVMBMGA1UECAwMSGVpbG9uZ2ppYW5nMRAwDgYDVQQK
DAdISVRfRVhQMREwDwYDVQQLDAhFWFBfdGVzdDEMMAoGA1UEAwwDY2R4MSMwIQYJ
KoZIhvcNAQkBFhQxMjMwMTAzMjgxMEBhZGFrLmNvbTCCASIwDQYJKoZIhvcNAQEB
BQADggEPADCCAQoCggEBAJofiICso8n2rLRbK4bgrlKLStuuOZGCa3wf0ZtmKzdS
UJ4zaFBlw5KbLqFpfzHJQN96VqwyvNmwKap95ju54r8AVApN+O+ioAi5lNaAltPe
I6oI2vd4uEOBIYOQtxCp93yzZISSZzNjedLPOX9X/KMomqdrQINhFtX53cIg271n
ZowIwgdJQrSS3pG+7Hs7CMBqH11g4qKtRU/2+ii3U9x3KdxxoobQJ3YZZWvQHV9b
WcsJ2WqceVw7r4IJGrrUjgGcK8JtN4JbUWGfRpcpA2ZVQ3GvTgE0xlcAEAi/i0Q/
B8LHgURBgN9ajSDcicdXszqV6gGm8JNUge8bBaqFlosCAwEAATANBgkqhkiG9w0B
AQQFAAOBgQBDxvV/LWu23UaJruFG2p4sg3gz0t6Ljcp0yt8AD0tCzcDKjqwzNF7A
oXOUbJCTEmtKdYqkzHO2gKstIdVmUX4r18kYPKRmQDl3Jajix3Q++lolgdOE6s6c
beg13IOQUIaC158QJ3SoehPQzANiBgOyUEBPqDJC2GgZMVVsUhMj8w==
-----END CERTIFICATE-----
