Certificate:
    Data:
        Version: 1 (0x0)
        Serial Number: 11 (0xb)
        Signature Algorithm: md5WithRSAEncryption
        Issuer: C=CN, ST=Heilongjiang, L=Harbin, O=Test, OU=Test, CN=Test/emailAddress=2106934880@qq.com
        Validity
            Not Before: Dec 10 14:48:14 2021 GMT
            Not After : Dec 10 14:48:14 2022 GMT
        Subject: C=CN, ST=Heilongjiang, O=HIT_Exp, OU=Exp_Test8, CN=cdx_test/emailAddress=12937129dhiahfa
        Subject Public Key Info:
            Public Key Algorithm: rsaEncryption
                Public-Key: (2048 bit)
                Modulus:
                    00:ac:e2:ab:cf:a7:62:0e:96:04:61:af:d8:00:48:
                    fd:dd:8c:1e:18:3e:25:3d:a3:19:9d:e1:5a:1a:f4:
                    5a:b3:a1:34:9f:f7:fb:69:a6:26:fa:95:6e:ae:f3:
                    1a:49:6f:ee:ea:8c:a7:b5:42:31:e8:72:59:1d:2a:
                    c4:b9:a6:2f:3c:cf:a1:b5:28:df:88:5d:24:d9:5e:
                    14:d0:e0:63:9d:98:74:51:35:8f:42:c9:65:3a:d8:
                    4e:5b:d3:86:03:93:54:ee:98:44:43:8c:4f:7f:5f:
                    e7:d0:f9:1c:ce:0c:71:c4:8e:46:d6:71:28:09:d8:
                    54:5b:2c:96:ae:8f:da:f1:72:ea:30:34:d6:6b:81:
                    56:50:4a:ac:10:05:fc:8c:ed:b3:bf:37:64:b6:7a:
                    c4:17:22:37:43:52:54:52:b0:15:84:c8:a8:8a:dc:
                    3f:de:d4:d0:50:31:d2:a4:f8:e6:f3:f8:31:92:38:
                    3d:e3:92:ff:98:2a:37:8f:6e:0d:ad:b3:00:00:b2:
                    6e:d4:b8:64:e1:d8:3e:b8:06:f0:28:a1:1f:e8:05:
                    7d:b4:e4:bc:bf:4a:b1:86:03:97:80:d3:33:d9:db:
                    ab:a2:93:65:6a:47:05:56:dd:96:f4:d4:12:f7:c9:
                    ac:87:e8:71:68:03:01:1d:10:04:fa:3e:b0:4b:e3:
                    7b:f1
                Exponent: 65537 (0x10001)
    Signature Algorithm: md5WithRSAEncryption
    Signature Value:
        47:39:dd:8f:3f:d9:29:6d:f5:b3:dd:57:f8:aa:1d:80:0e:22:
        51:90:79:13:2c:b8:8e:ec:3e:d8:12:5e:72:fc:2c:7b:68:80:
        20:ed:d1:87:d9:35:9f:e4:0f:7e:9f:45:8f:2c:59:0a:bb:5c:
        fa:a1:d4:f4:65:52:e7:37:50:fa:b9:40:16:af:45:43:8c:7e:
        66:43:88:e7:66:7e:52:be:ce:ad:2e:83:e7:eb:54:79:fb:95:
        0d:3c:5a:70:ff:37:2f:a0:d1:61:3f:60:85:f6:97:0c:2b:74:
        83:37:a5:be:8e:b0:ec:69:ec:2a:e6:76:79:c8:9c:07:06:d8:
        4f:74
-----BEGIN CERTIFICATE-----
MIIC9TCCAl4CAQswDQYJKoZIhvcNAQEEBQAwgYQxCzAJBgNVBAYTAkNOMRUwEwYD
VQQIDAxIZWlsb25namlhbmcxDzANBgNVBAcMBkhhcmJpbjENMAsGA1UECgwEVGVz
dDENMAsGA1UECwwEVGVzdDENMAsGA1UEAwwEVGVzdDEgMB4GCSqGSIb3DQEJARYR
MjEwNjkzNDg4MEBxcS5jb20wHhcNMjExMjEwMTQ0ODE0WhcNMjIxMjEwMTQ0ODE0
WjB9MQswCQYDVQQGEwJDTjEVMBMGA1UECAwMSGVpbG9uZ2ppYW5nMRAwDgYDVQQK
DAdISVRfRXhwMRIwEAYDVQQLDAlFeHBfVGVzdDgxETAPBgNVBAMMCGNkeF90ZXN0
MR4wHAYJKoZIhvcNAQkBFg8xMjkzNzEyOWRoaWFoZmEwggEiMA0GCSqGSIb3DQEB
AQUAA4IBDwAwggEKAoIBAQCs4qvPp2IOlgRhr9gASP3djB4YPiU9oxmd4Voa9Fqz
oTSf9/tppib6lW6u8xpJb+7qjKe1QjHoclkdKsS5pi88z6G1KN+IXSTZXhTQ4GOd
mHRRNY9CyWU62E5b04YDk1TumERDjE9/X+fQ+RzODHHEjkbWcSgJ2FRbLJauj9rx
cuowNNZrgVZQSqwQBfyM7bO/N2S2esQXIjdDUlRSsBWEyKiK3D/e1NBQMdKk+Obz
+DGSOD3jkv+YKjePbg2tswAAsm7UuGTh2D64BvAooR/oBX205Ly/SrGGA5eA0zPZ
26uik2VqRwVW3Zb01BL3yayH6HFoAwEdEAT6PrBL43vxAgMBAAEwDQYJKoZIhvcN
AQEEBQADgYEARzndjz/ZKW31s91X+KodgA4iUZB5Eyy4juw+2BJecvwse2iAIO3R
h9k1n+QPfp9FjyxZCrtc+qHU9GVS5zdQ+rlAFq9FQ4x+ZkOI52Z+Ur7OrS6D5+tU
efuVDTxacP83L6DRYT9ghfaXDCt0gzelvo6w7GnsKuZ2ecicBwbYT3Q=
-----END CERTIFICATE-----
