Certificate:
    Data:
        Version: 1 (0x0)
        Serial Number: 12 (0xc)
        Signature Algorithm: md5WithRSAEncryption
        Issuer: C=CN, ST=Heilongjiang, L=Harbin, O=Test, OU=Test, CN=Test/emailAddress=2106934880@qq.com
        Validity
            Not Before: Dec 16 12:53:33 2021 GMT
            Not After : Dec 16 12:53:33 2022 GMT
        Subject: C=CN, ST=HeiLongJiang, O=HIT_Exp-Test, OU=Test09, CN=cdx1190201308/emailAddress=2106934880@qq.com
        Subject Public Key Info:
            Public Key Algorithm: rsaEncryption
                Public-Key: (2048 bit)
                Modulus:
                    00:b1:d0:90:c4:dd:01:fd:1a:74:44:6c:18:0f:96:
                    95:bd:1d:e2:2b:d4:5a:f3:4b:f6:67:2d:e0:78:a2:
                    88:c1:45:c2:6c:d2:02:2e:c2:cb:bf:a9:e2:c7:6c:
                    08:fc:36:48:0f:1a:ca:c1:07:a8:27:92:a3:a4:97:
                    3e:38:3c:a6:a1:38:21:15:80:1b:0d:b1:e9:f8:7e:
                    eb:4b:c5:2d:18:06:9e:86:65:2e:b0:81:cd:eb:22:
                    9a:d3:1c:92:b8:2a:7b:98:0c:9a:7c:cb:8c:e3:f4:
                    0c:a4:02:b7:9f:a8:c5:ac:fb:84:69:72:67:4b:f2:
                    2f:71:f6:8d:db:42:e8:b8:21:ac:8a:94:80:1c:6a:
                    61:d4:03:cf:1a:85:80:c7:ab:fe:e2:64:79:48:0d:
                    28:26:dd:dd:7d:31:da:40:af:d7:f8:31:9e:f5:d5:
                    38:36:40:ec:a5:ce:68:d8:a8:c1:c3:b7:f5:9e:51:
                    2a:19:bd:3d:1e:84:1c:12:e1:21:3c:d1:56:c9:15:
                    54:d4:9e:32:1a:e2:4a:94:da:2e:96:d1:83:fc:6e:
                    56:e3:67:07:e3:67:67:9f:7b:0a:84:a6:8e:21:77:
                    2c:67:e7:c1:9f:80:52:39:44:cf:49:c2:5a:dd:53:
                    f2:4a:dd:1d:aa:e5:c4:f1:76:ba:84:42:a3:d1:59:
                    71:93
                Exponent: 65537 (0x10001)
    Signature Algorithm: md5WithRSAEncryption
    Signature Value:
        75:bf:ba:a8:ad:20:f5:ac:cf:76:6c:09:32:69:7c:b8:b5:ee:
        43:30:67:fa:90:e9:63:a5:3d:cd:5b:e6:37:85:7a:c1:3e:6c:
        4c:77:ab:8a:07:81:6a:d5:b1:09:d6:f6:b2:51:1d:6f:7f:b0:
        14:3e:ad:0f:a2:c4:26:04:a3:80:ed:d8:83:f7:b7:48:54:88:
        2a:8a:4f:ab:27:cf:0a:77:93:99:a3:f8:4b:7d:e3:01:78:f6:
        7e:32:c7:6d:1b:9c:4a:34:f4:76:9d:1e:ba:4d:79:12:54:1d:
        ce:f8:ee:00:da:a6:4b:85:8c:f8:ac:57:9e:33:a1:b3:c8:d5:
        59:72
-----BEGIN CERTIFICATE-----
MIIC/zCCAmgCAQwwDQYJKoZIhvcNAQEEBQAwgYQxCzAJBgNVBAYTAkNOMRUwEwYD
VQQIDAxIZWlsb25namlhbmcxDzANBgNVBAcMBkhhcmJpbjENMAsGA1UECgwEVGVz
dDENMAsGA1UECwwEVGVzdDENMAsGA1UEAwwEVGVzdDEgMB4GCSqGSIb3DQEJARYR
MjEwNjkzNDg4MEBxcS5jb20wHhcNMjExMjE2MTI1MzMzWhcNMjIxMjE2MTI1MzMz
WjCBhjELMAkGA1UEBhMCQ04xFTATBgNVBAgMDEhlaUxvbmdKaWFuZzEVMBMGA1UE
CgwMSElUX0V4cC1UZXN0MQ8wDQYDVQQLDAZUZXN0MDkxFjAUBgNVBAMMDWNkeDEx
OTAyMDEzMDgxIDAeBgkqhkiG9w0BCQEWETIxMDY5MzQ4ODBAcXEuY29tMIIBIjAN
BgkqhkiG9w0BAQEFAAOCAQ8AMIIBCgKCAQEAsdCQxN0B/Rp0RGwYD5aVvR3iK9Ra
80v2Zy3geKKIwUXCbNICLsLLv6nix2wI/DZIDxrKwQeoJ5KjpJc+ODymoTghFYAb
DbHp+H7rS8UtGAaehmUusIHN6yKa0xySuCp7mAyafMuM4/QMpAK3n6jFrPuEaXJn
S/IvcfaN20LouCGsipSAHGph1APPGoWAx6v+4mR5SA0oJt3dfTHaQK/X+DGe9dU4
NkDspc5o2KjBw7f1nlEqGb09HoQcEuEhPNFWyRVU1J4yGuJKlNoultGD/G5W42cH
42dnn3sKhKaOIXcsZ+fBn4BSOUTPScJa3VPySt0dquXE8Xa6hEKj0VlxkwIDAQAB
MA0GCSqGSIb3DQEBBAUAA4GBAHW/uqitIPWsz3ZsCTJpfLi17kMwZ/qQ6WOlPc1b
5jeFesE+bEx3q4oHgWrVsQnW9rJRHW9/sBQ+rQ+ixCYEo4Dt2IP3t0hUiCqKT6sn
zwp3k5mj+Et94wF49n4yx20bnEo09HadHrpNeRJUHc747gDapkuFjPisV54zobPI
1Vly
-----END CERTIFICATE-----
