Certificate:
    Data:
        Version: 1 (0x0)
        Serial Number: 13 (0xd)
        Signature Algorithm: md5WithRSAEncryption
        Issuer: C=CN, ST=Heilongjiang, L=Harbin, O=Test, OU=Test, CN=Test/emailAddress=2106934880@qq.com
        Validity
            Not Before: Dec 18 02:26:01 2021 GMT
            Not After : Dec 18 02:26:01 2022 GMT
        Subject: C=CN, ST=Heilongjiang, O=HIT_Exp, OU=HIT_Exp_Test, CN=cdx1190201308/emailAddress=2106934880
        Subject Public Key Info:
            Public Key Algorithm: rsaEncryption
                Public-Key: (2048 bit)
                Modulus:
                    00:e0:e8:66:2c:e4:97:5e:90:29:ce:5e:89:72:8a:
                    31:c4:1b:72:9b:61:a2:7c:01:e6:55:7a:8f:3b:26:
                    e6:fc:9c:6d:0e:78:cf:f8:30:38:86:ee:8a:4a:4e:
                    ed:63:f2:8a:b0:1b:0e:84:b3:7e:8e:cc:c2:17:ea:
                    5c:fa:29:d1:f8:49:5a:c6:4b:64:2f:b3:80:0f:86:
                    be:d6:2e:95:77:17:37:8a:78:f5:3e:e3:4a:e2:cb:
                    7b:ec:cf:08:35:9c:8e:da:89:7e:b2:f3:ce:ff:63:
                    bf:60:1d:17:6e:57:c2:64:66:27:f6:44:fa:90:3a:
                    3e:35:bf:2d:26:42:f5:5c:cf:bd:0e:60:01:0d:ec:
                    a4:f6:b3:bf:ca:86:64:80:8f:82:73:84:96:ed:c2:
                    32:20:a1:4a:30:d6:f8:c7:1c:55:af:2f:cb:b8:f2:
                    cf:c9:96:05:77:54:05:98:29:a6:ea:0e:15:eb:19:
                    11:67:c1:d7:c2:6f:2b:81:af:51:31:eb:af:87:01:
                    11:4c:e3:81:6e:08:9c:9c:02:2c:af:b6:a8:d4:6e:
                    59:52:c6:d2:61:a5:8c:8e:86:a7:9b:66:4b:d9:d7:
                    8f:ed:ec:45:20:12:1a:2e:4c:c5:e8:e1:dc:90:f9:
                    a9:4f:54:97:20:52:59:bf:b9:d0:c3:fd:d6:13:5d:
                    65:01
                Exponent: 65537 (0x10001)
    Signature Algorithm: md5WithRSAEncryption
    Signature Value:
        ad:f7:b6:ba:ef:60:d8:95:f3:e3:22:6e:0d:e3:af:c3:4f:d3:
        29:3b:81:72:52:cf:87:18:fc:c7:f9:ac:ac:07:75:41:30:cc:
        ae:a0:1f:40:5e:24:37:3e:0a:cf:ff:61:92:74:56:24:c6:41:
        28:91:86:03:84:ba:ef:ca:7e:1f:e4:34:0a:92:e0:2c:5b:63:
        ce:b2:3e:f3:10:23:71:83:10:81:59:55:52:14:a9:a5:0a:df:
        3a:8e:6c:78:28:9a:4a:aa:d5:b4:ee:ca:fd:35:cc:0b:0a:bf:
        77:e8:47:c3:9a:16:e3:87:cf:8a:0e:1d:37:b6:8a:8e:ff:77:
        df:44
-----BEGIN CERTIFICATE-----
MIIC+TCCAmICAQ0wDQYJKoZIhvcNAQEEBQAwgYQxCzAJBgNVBAYTAkNOMRUwEwYD
VQQIDAxIZWlsb25namlhbmcxDzANBgNVBAcMBkhhcmJpbjENMAsGA1UECgwEVGVz
dDENMAsGA1UECwwEVGVzdDENMAsGA1UEAwwEVGVzdDEgMB4GCSqGSIb3DQEJARYR
MjEwNjkzNDg4MEBxcS5jb20wHhcNMjExMjE4MDIyNjAxWhcNMjIxMjE4MDIyNjAx
WjCBgDELMAkGA1UEBhMCQ04xFTATBgNVBAgMDEhlaWxvbmdqaWFuZzEQMA4GA1UE
CgwHSElUX0V4cDEVMBMGA1UECwwMSElUX0V4cF9UZXN0MRYwFAYDVQQDDA1jZHgx
MTkwMjAxMzA4MRkwFwYJKoZIhvcNAQkBFgoyMTA2OTM0ODgwMIIBIjANBgkqhkiG
9w0BAQEFAAOCAQ8AMIIBCgKCAQEA4OhmLOSXXpApzl6JcooxxBtym2GifAHmVXqP
Oybm/JxtDnjP+DA4hu6KSk7tY/KKsBsOhLN+jszCF+pc+inR+ElaxktkL7OAD4a+
1i6Vdxc3inj1PuNK4st77M8INZyO2ol+svPO/2O/YB0XblfCZGYn9kT6kDo+Nb8t
JkL1XM+9DmABDeyk9rO/yoZkgI+Cc4SW7cIyIKFKMNb4xxxVry/LuPLPyZYFd1QF
mCmm6g4V6xkRZ8HXwm8rga9RMeuvhwERTOOBbgicnAIsr7ao1G5ZUsbSYaWMjoan
m2ZL2deP7exFIBIaLkzF6OHckPmpT1SXIFJZv7nQw/3WE11lAQIDAQABMA0GCSqG
SIb3DQEBBAUAA4GBAK33trrvYNiV8+Mibg3jr8NP0yk7gXJSz4cY/Mf5rKwHdUEw
zK6gH0BeJDc+Cs//YZJ0ViTGQSiRhgOEuu/Kfh/kNAqS4CxbY86yPvMQI3GDEIFZ
VVIUqaUK3zqObHgomkqq1bTuyv01zAsKv3foR8OaFuOHz4oOHTe2io7/d99E
-----END CERTIFICATE-----
