Certificate:
    Data:
        Version: 1 (0x0)
        Serial Number: 15 (0xf)
        Signature Algorithm: md5WithRSAEncryption
        Issuer: C=CN, ST=Heilongjiang, L=Harbin, O=Test, OU=Test, CN=Test/emailAddress=2106934880@qq.com
        Validity
            Not Before: Dec 18 07:37:35 2021 GMT
            Not After : Dec 18 07:37:35 2022 GMT
        Subject: C=CN, ST=HEILONGJIANG, O=HITEXP, OU=EXP, CN=CDX1190201308/emailAddress=2106934880
        Subject Public Key Info:
            Public Key Algorithm: rsaEncryption
                Public-Key: (2048 bit)
                Modulus:
                    00:94:0f:7f:59:c0:3b:8e:41:d3:e7:fa:64:b3:19:
                    42:e4:e5:e1:80:f3:2c:e8:f3:33:29:65:39:b7:a8:
                    38:03:f9:77:8f:a4:56:f8:f1:fe:c7:00:81:fd:4f:
                    dc:2c:ee:06:65:be:54:49:87:45:25:27:56:2f:e7:
                    f0:6c:de:a5:a9:d5:0f:11:57:fa:e4:8c:53:dd:14:
                    92:1d:92:0f:c0:56:7e:7f:41:c3:f4:6f:ba:4d:ae:
                    27:3c:78:53:42:a1:06:d7:a3:a8:96:05:99:31:d2:
                    aa:a0:06:59:dc:94:f3:83:a7:ab:0b:e6:99:7f:8d:
                    26:f8:34:37:23:c9:87:67:22:c4:e9:73:ef:4d:7b:
                    a4:71:79:c4:4e:e0:a2:79:56:62:01:2f:81:17:ad:
                    9c:18:6d:60:c4:be:a9:8c:4a:ca:45:54:75:28:1d:
                    48:11:be:fb:78:23:e9:a1:22:e3:9c:5b:49:48:e7:
                    f5:2a:10:0a:18:a7:d2:2e:07:78:d9:44:94:11:48:
                    dd:06:f0:c4:8c:f3:75:c1:ab:dc:02:de:46:d1:2a:
                    e8:53:bb:47:38:5b:e2:e6:e7:bc:59:2a:78:af:ff:
                    0e:9c:1e:ae:e1:a5:53:46:5d:35:19:bc:49:72:fa:
                    18:4b:bd:87:33:76:46:51:79:56:d1:62:35:ef:20:
                    02:17
                Exponent: 65537 (0x10001)
    Signature Algorithm: md5WithRSAEncryption
    Signature Value:
        a9:42:01:a0:cb:e9:af:b7:4b:d4:5b:10:98:ca:01:67:1b:08:
        24:0e:af:e4:8b:cc:59:22:d2:f8:bf:6e:57:5d:99:9e:14:63:
        3d:5b:b9:72:79:ca:7f:3c:cb:ba:ff:db:3e:e7:e4:a2:e0:09:
        61:82:5e:fd:36:4a:fa:73:7c:86:0c:02:44:f2:4e:34:58:f0:
        bc:44:d1:d4:96:5f:d0:49:19:35:7b:3f:b1:6e:8b:a0:76:95:
        0a:32:e1:e9:9c:bf:92:c2:ed:b6:b0:96:32:ed:58:df:26:38:
        78:6b:71:c8:3f:af:23:0a:2c:d2:78:c3:90:7d:47:df:fa:c1:
        40:09
-----BEGIN CERTIFICATE-----
MIIC7jCCAlcCAQ8wDQYJKoZIhvcNAQEEBQAwgYQxCzAJBgNVBAYTAkNOMRUwEwYD
VQQIDAxIZWlsb25namlhbmcxDzANBgNVBAcMBkhhcmJpbjENMAsGA1UECgwEVGVz
dDENMAsGA1UECwwEVGVzdDENMAsGA1UEAwwEVGVzdDEgMB4GCSqGSIb3DQEJARYR
MjEwNjkzNDg4MEBxcS5jb20wHhcNMjExMjE4MDczNzM1WhcNMjIxMjE4MDczNzM1
WjB2MQswCQYDVQQGEwJDTjEVMBMGA1UECAwMSEVJTE9OR0pJQU5HMQ8wDQYDVQQK
DAZISVRFWFAxDDAKBgNVBAsMA0VYUDEWMBQGA1UEAwwNQ0RYMTE5MDIwMTMwODEZ
MBcGCSqGSIb3DQEJARYKMjEwNjkzNDg4MDCCASIwDQYJKoZIhvcNAQEBBQADggEP
ADCCAQoCggEBAJQPf1nAO45B0+f6ZLMZQuTl4YDzLOjzMyllObeoOAP5d4+kVvjx
/scAgf1P3CzuBmW+VEmHRSUnVi/n8GzepanVDxFX+uSMU90Ukh2SD8BWfn9Bw/Rv
uk2uJzx4U0KhBtejqJYFmTHSqqAGWdyU84OnqwvmmX+NJvg0NyPJh2cixOlz7017
pHF5xE7gonlWYgEvgRetnBhtYMS+qYxKykVUdSgdSBG++3gj6aEi45xbSUjn9SoQ
Chin0i4HeNlElBFI3QbwxIzzdcGr3ALeRtEq6FO7Rzhb4ubnvFkqeK//DpweruGl
U0ZdNRm8SXL6GEu9hzN2RlF5VtFiNe8gAhcCAwEAATANBgkqhkiG9w0BAQQFAAOB
gQCpQgGgy+mvt0vUWxCYygFnGwgkDq/ki8xZItL4v25XXZmeFGM9W7lyecp/PMu6
/9s+5+Si4Alhgl79Nkr6c3yGDAJE8k40WPC8RNHUll/QSRk1ez+xbougdpUKMuHp
nL+Swu22sJYy7VjfJjh4a3HIP68jCizSeMOQfUff+sFACQ==
-----END CERTIFICATE-----
