Certificate:
    Data:
        Version: 1 (0x0)
        Serial Number: 17 (0x11)
        Signature Algorithm: md5WithRSAEncryption
        Issuer: C=CN, ST=Heilongjiang, L=Harbin, O=Test, OU=Test, CN=Test/emailAddress=2106934880@qq.com
        Validity
            Not Before: Dec 19 02:30:29 2021 GMT
            Not After : Dec 19 02:30:29 2022 GMT
        Subject: C=CN, ST=Heilongjiang, O=HIT_Exp, OU=Exp_Test, CN=cdx1190201308/emailAddress=2106934880@qq.com
        Subject Public Key Info:
            Public Key Algorithm: rsaEncryption
                Public-Key: (2048 bit)
                Modulus:
                    00:98:43:b0:50:db:2a:78:64:50:ba:94:26:af:2a:
                    2c:f8:93:28:64:f9:23:1e:2e:c6:ef:38:95:a6:4a:
                    83:90:cb:de:09:2b:41:c7:35:a1:aa:eb:42:8e:80:
                    75:e3:00:1a:3b:58:c6:25:74:1e:8c:84:26:ac:55:
                    71:f8:e9:81:65:38:6b:2c:96:b1:a6:3e:00:0b:a5:
                    ea:6c:a4:13:37:9c:a1:f7:c3:08:ed:10:0d:53:23:
                    64:e0:68:a4:fd:ff:b9:01:dd:07:19:83:4f:d4:f3:
                    77:46:ee:08:6a:bd:70:b6:88:00:57:08:f9:ad:78:
                    06:14:7a:c6:2f:7c:c3:f8:8d:67:7d:ab:c6:b1:5b:
                    d0:16:9d:c3:54:e5:85:f3:b2:41:9e:7c:41:dd:b3:
                    7b:54:65:5c:cf:5b:47:4d:d2:7e:4a:2e:a6:72:0e:
                    06:09:0b:34:5d:f1:a1:1c:47:84:d0:b1:32:92:f0:
                    3c:a8:e6:17:44:c7:63:d5:34:c0:72:b4:91:19:3a:
                    0d:9e:13:a8:09:0d:16:4b:be:41:9f:cf:49:67:de:
                    e2:f9:c1:3b:77:64:c0:05:46:a3:5a:d2:1b:38:00:
                    00:7d:86:f4:9b:ac:22:ce:bc:a7:a5:cd:d4:c9:d3:
                    eb:d1:bc:04:54:a8:a0:43:4a:9b:8f:83:93:19:2a:
                    60:19
                Exponent: 65537 (0x10001)
    Signature Algorithm: md5WithRSAEncryption
    Signature Value:
        66:ac:49:49:9a:9d:94:04:42:ac:06:5a:80:a4:c4:20:8e:9b:
        17:ab:45:f4:1a:44:94:48:7e:9c:c9:78:8c:70:b6:aa:57:6b:
        b5:32:f0:96:d0:13:49:06:ca:07:e1:f5:25:c6:c4:41:bb:c2:
        34:69:24:f8:1c:ff:36:50:fc:ba:29:37:0f:a0:cc:fe:cd:bc:
        f5:11:a1:47:2b:36:2d:98:8b:e9:c0:c5:a5:5d:12:34:fd:3b:
        58:79:fe:59:bf:81:aa:16:1b:d0:e5:10:99:ed:8e:f8:76:06:
        bc:ff:c8:f7:49:e9:43:77:00:ed:6a:6e:23:01:7e:c8:85:01:
        53:c1
-----BEGIN CERTIFICATE-----
MIIC/DCCAmUCAREwDQYJKoZIhvcNAQEEBQAwgYQxCzAJBgNVBAYTAkNOMRUwEwYD
VQQIDAxIZWlsb25namlhbmcxDzANBgNVBAcMBkhhcmJpbjENMAsGA1UECgwEVGVz
dDENMAsGA1UECwwEVGVzdDENMAsGA1UEAwwEVGVzdDEgMB4GCSqGSIb3DQEJARYR
MjEwNjkzNDg4MEBxcS5jb20wHhcNMjExMjE5MDIzMDI5WhcNMjIxMjE5MDIzMDI5
WjCBgzELMAkGA1UEBhMCQ04xFTATBgNVBAgMDEhlaWxvbmdqaWFuZzEQMA4GA1UE
CgwHSElUX0V4cDERMA8GA1UECwwIRXhwX1Rlc3QxFjAUBgNVBAMMDWNkeDExOTAy
MDEzMDgxIDAeBgkqhkiG9w0BCQEWETIxMDY5MzQ4ODBAcXEuY29tMIIBIjANBgkq
hkiG9w0BAQEFAAOCAQ8AMIIBCgKCAQEAmEOwUNsqeGRQupQmryos+JMoZPkjHi7G
7ziVpkqDkMveCStBxzWhqutCjoB14wAaO1jGJXQejIQmrFVx+OmBZThrLJaxpj4A
C6XqbKQTN5yh98MI7RANUyNk4Gik/f+5Ad0HGYNP1PN3Ru4Iar1wtogAVwj5rXgG
FHrGL3zD+I1nfavGsVvQFp3DVOWF87JBnnxB3bN7VGVcz1tHTdJ+Si6mcg4GCQs0
XfGhHEeE0LEykvA8qOYXRMdj1TTAcrSRGToNnhOoCQ0WS75Bn89JZ97i+cE7d2TA
BUajWtIbOAAAfYb0m6wizrynpc3UydPr0bwEVKigQ0qbj4OTGSpgGQIDAQABMA0G
CSqGSIb3DQEBBAUAA4GBAGasSUmanZQEQqwGWoCkxCCOmxerRfQaRJRIfpzJeIxw
tqpXa7Uy8JbQE0kGygfh9SXGxEG7wjRpJPgc/zZQ/LopNw+gzP7NvPURoUcrNi2Y
i+nAxaVdEjT9O1h5/lm/gaoWG9DlEJntjvh2Brz/yPdJ6UN3AO1qbiMBfsiFAVPB
-----END CERTIFICATE-----
