Certificate:
    Data:
        Version: 1 (0x0)
        Serial Number: 18 (0x12)
        Signature Algorithm: md5WithRSAEncryption
        Issuer: C=CN, ST=Heilongjiang, L=Harbin, O=Test, OU=Test, CN=Test/emailAddress=2106934880@qq.com
        Validity
            Not Before: Dec 19 03:17:33 2021 GMT
            Not After : Dec 19 03:17:33 2022 GMT
        Subject: C=CN, ST=Heilongjiang, O=hit_exp, OU=exp_test, CN=cdx1190201308/emailAddress=2106934880@qq.com
        Subject Public Key Info:
            Public Key Algorithm: rsaEncryption
                Public-Key: (2048 bit)
                Modulus:
                    00:a9:ba:e8:9b:9d:fc:93:88:17:43:3d:c5:d3:8d:
                    8d:59:97:04:41:3b:33:30:2d:ae:f2:14:5e:c2:72:
                    d6:53:b9:24:23:03:8e:b5:04:a1:aa:bb:70:58:55:
                    be:17:8f:e3:71:00:5c:a0:10:08:de:d9:1b:6f:a6:
                    7c:65:bc:70:a7:bf:0d:99:30:b8:76:71:c9:7c:df:
                    ab:68:8e:a6:01:fa:2d:ae:6c:29:90:5b:00:8d:d9:
                    4e:5a:2a:5a:c4:15:aa:52:7f:c3:1f:40:66:c8:ce:
                    f0:c2:51:23:cf:63:e9:b9:b7:4d:d1:6f:8e:88:77:
                    b6:c3:52:b9:24:a2:3e:62:fc:d6:67:0d:f2:30:e6:
                    2a:dc:47:d4:b6:a4:2f:b6:9f:9d:af:df:7e:76:23:
                    3c:f9:14:b8:6d:4a:97:79:98:b5:b4:12:7d:cd:30:
                    71:6a:46:e4:6d:21:cf:9f:27:0b:04:56:9b:3a:f5:
                    ce:9a:df:b7:07:83:9d:f6:50:e8:35:2b:4a:e2:a7:
                    11:b1:2a:92:6e:46:7f:8e:06:f9:8f:dd:19:5b:5e:
                    b5:57:5c:7a:6d:81:65:4c:47:a7:b0:f0:e1:bb:43:
                    d4:c1:f4:ba:f5:88:c9:d1:a8:fd:aa:c6:39:f9:ce:
                    c2:a7:ad:c9:4d:64:7e:2e:22:35:39:c7:77:56:3d:
                    d6:b3
                Exponent: 65537 (0x10001)
    Signature Algorithm: md5WithRSAEncryption
    Signature Value:
        3c:33:da:30:31:1f:a2:b7:db:7d:44:88:5c:13:52:57:a3:39:
        f5:fd:1e:39:44:22:48:7d:5b:8d:f7:d0:9d:a5:c9:5d:c6:8a:
        34:b5:fb:f1:0d:2f:82:73:bb:09:8c:51:e2:da:12:3b:8c:37:
        70:cb:ac:92:5e:68:40:ff:46:93:16:b0:70:b0:57:bb:97:b7:
        3c:80:77:07:b6:c5:7e:13:02:d2:70:a8:da:a3:49:90:0e:13:
        be:0d:0d:27:cd:aa:ad:e3:ae:a1:84:f6:d6:bb:72:b5:2a:9d:
        8b:e2:63:2d:24:1b:aa:53:27:d1:06:9e:51:d3:8f:49:9b:b6:
        d8:82
-----BEGIN CERTIFICATE-----
MIIC/DCCAmUCARIwDQYJKoZIhvcNAQEEBQAwgYQxCzAJBgNVBAYTAkNOMRUwEwYD
VQQIDAxIZWlsb25namlhbmcxDzANBgNVBAcMBkhhcmJpbjENMAsGA1UECgwEVGVz
dDENMAsGA1UECwwEVGVzdDENMAsGA1UEAwwEVGVzdDEgMB4GCSqGSIb3DQEJARYR
MjEwNjkzNDg4MEBxcS5jb20wHhcNMjExMjE5MDMxNzMzWhcNMjIxMjE5MDMxNzMz
WjCBgzELMAkGA1UEBhMCQ04xFTATBgNVBAgMDEhlaWxvbmdqaWFuZzEQMA4GA1UE
CgwHaGl0X2V4cDERMA8GA1UECwwIZXhwX3Rlc3QxFjAUBgNVBAMMDWNkeDExOTAy
MDEzMDgxIDAeBgkqhkiG9w0BCQEWETIxMDY5MzQ4ODBAcXEuY29tMIIBIjANBgkq
hkiG9w0BAQEFAAOCAQ8AMIIBCgKCAQEAqbrom538k4gXQz3F042NWZcEQTszMC2u
8hRewnLWU7kkIwOOtQShqrtwWFW+F4/jcQBcoBAI3tkbb6Z8Zbxwp78NmTC4dnHJ
fN+raI6mAfotrmwpkFsAjdlOWipaxBWqUn/DH0BmyM7wwlEjz2PpubdN0W+OiHe2
w1K5JKI+YvzWZw3yMOYq3EfUtqQvtp+dr99+diM8+RS4bUqXeZi1tBJ9zTBxakbk
bSHPnycLBFabOvXOmt+3B4Od9lDoNStK4qcRsSqSbkZ/jgb5j90ZW161V1x6bYFl
TEensPDhu0PUwfS69YjJ0aj9qsY5+c7Cp63JTWR+LiI1Ocd3Vj3WswIDAQABMA0G
CSqGSIb3DQEBBAUAA4GBADwz2jAxH6K3231EiFwTUlejOfX9HjlEIkh9W4330J2l
yV3GijS1+/ENL4JzuwmMUeLaEjuMN3DLrJJeaED/RpMWsHCwV7uXtzyAdwe2xX4T
AtJwqNqjSZAOE74NDSfNqq3jrqGE9ta7crUqnYviYy0kG6pTJ9EGnlHTj0mbttiC
-----END CERTIFICATE-----
